; Function Attrs: nounwind uwtable
define dso_local range(i64 0, 2) i64 @amvalidate(ptr noundef readonly captures(none) %0) local_unnamed_addr #0 {
  %2 = getelementptr inbounds nuw i8, ptr %0, i64 32
  %3 = load i64, ptr %2, align 8
  %4 = trunc i64 %3 to i32
  %5 = and i64 %3, 4294967295
  %6 = tail call ptr @SearchSysCache1(i32 noundef 14, i64 noundef %5) #4
  %.not = icmp eq ptr %6, null
  br i1 %.not, label %7, label %10

7:                                                ; preds = %1
  %8 = tail call zeroext i1 @errstart_cold(i32 noundef 21, ptr noundef null) #5
  tail call void @llvm.assume(i1 %8)
  %9 = tail call i32 (ptr, ...) @errmsg_internal(ptr noundef nonnull @.str.8, i32 noundef %4) #4
  tail call void @errfinish(ptr noundef nonnull @.str.1, i32 noundef 175, ptr noundef nonnull @__func__.amvalidate) #4
  unreachable

10:                                               ; preds = %1
  %11 = getelementptr i8, ptr %6, i64 16
  %.val = load ptr, ptr %11, align 8
  %12 = getelementptr inbounds nuw i8, ptr %.val, i64 22
  %13 = load i8, ptr %12, align 2
  %14 = zext i8 %13 to i64
  %15 = getelementptr inbounds nuw i8, ptr %.val, i64 %14
  %16 = getelementptr inbounds nuw i8, ptr %15, i64 4
  %17 = load i32, ptr %16, align 4
  tail call void @ReleaseSysCache(ptr noundef nonnull %6) #4
  %18 = tail call ptr @GetIndexAmRoutineByAmId(i32 noundef %17, i1 noundef zeroext false)
  %19 = getelementptr inbounds nuw i8, ptr %18, i64 128
  %20 = load ptr, ptr %19, align 8
  %21 = icmp eq ptr %20, null
  br i1 %21, label %22, label %25

22:                                               ; preds = %10
  %23 = tail call zeroext i1 @errstart_cold(i32 noundef 21, ptr noundef null) #5
  tail call void @llvm.assume(i1 %23)
  %24 = tail call i32 (ptr, ...) @errmsg_internal(ptr noundef nonnull @.str.9, i32 noundef %17) #4
  tail call void @errfinish(ptr noundef nonnull @.str.1, i32 noundef 186, ptr noundef nonnull @__func__.amvalidate) #4
  unreachable

25:                                               ; preds = %10
  %26 = tail call zeroext i1 %20(i32 noundef %4) #4
  tail call void @pfree(ptr noundef nonnull %18) #4
  %27 = zext i1 %26 to i64
  ret i64 %27
}